target datalayout = "e-m:e-p270:32:32-p271:32:32-p272:64:64-i64:64-i128:128-f80:128-n8:16:32:64-S128"
target triple = "x86_64-pc-linux-gnu"

%"class.std::optional" = type { %"struct.std::_Optional_base" }
%"struct.std::_Optional_base" = type { %"struct.std::_Optional_payload" }
%"struct.std::_Optional_payload" = type { %"struct.std::_Optional_payload_base.base", [7 x i8] }
%"struct.std::_Optional_payload_base.base" = type <{ %"union.std::_Optional_payload_base<std::basic_string_view<char>>::_Storage", i8 }>
%"union.std::_Optional_payload_base<std::basic_string_view<char>>::_Storage" = type { %"class.std::basic_string_view" }
%"class.std::basic_string_view" = type { i64, ptr }
%struct.LocExtKeyData = type <{ %"class.std::basic_string_view", %"class.std::basic_string_view", %"class.icu_77::internal::LocalOpenPointer", i32, [4 x i8] }>
%"class.icu_77::internal::LocalOpenPointer" = type { %"class.icu_77::LocalPointerBase" }
%"class.icu_77::LocalPointerBase" = type { ptr }
%"struct.std::_Optional_payload_base" = type <{ %"union.std::_Optional_payload_base<std::basic_string_view<char>>::_Storage", i8, [7 x i8] }>

@_ZL13gLocExtKeyMap = internal global ptr null, align 8

; Function Attrs: mustprogress nounwind uwtable
define linkonce_odr void @_ZNSt22_Optional_payload_baseISt17basic_string_viewIcSt11char_traitsIcEEE8_StorageIS3_Lb1EEC2IJRS3_EEESt10in_place_tDpOT_(ptr noundef nonnull align 8 dereferenceable(16) %0, ptr noundef nonnull align 8 dereferenceable(16) %1) unnamed_addr #0 comdat align 2 {
  %3 = alloca ptr, align 8
  %4 = alloca ptr, align 8
  store ptr %0, ptr %3, align 8, !tbaa !168
  store ptr %1, ptr %4, align 8, !tbaa !29
  %5 = load ptr, ptr %3, align 8
  %6 = load ptr, ptr %4, align 8, !tbaa !29
  call void @llvm.memcpy.p0.p0.i64(ptr align 8 %5, ptr align 8 %6, i64 16, i1 false), !tbaa.struct !40
  ret void
}

; Function Attrs: mustprogress nounwind uwtable
define linkonce_odr void @_ZNSt22_Optional_payload_baseISt17basic_string_viewIcSt11char_traitsIcEEE8_StorageIS3_Lb1EEC2Ev(ptr noundef nonnull align 8 dereferenceable(16) %0) unnamed_addr #0 comdat align 2 {
  %2 = alloca ptr, align 8
  store ptr %0, ptr %2, align 8, !tbaa !168
  ret void
}

; Function Attrs: mustprogress uwtable
define linkonce_odr void @_ZNSt22_Optional_payload_baseISt17basic_string_viewIcSt11char_traitsIcEEEC2IJRS3_EEESt10in_place_tDpOT_(ptr noundef nonnull align 8 dereferenceable(17) %0, ptr noundef nonnull align 8 dereferenceable(16) %1) unnamed_addr #1 comdat align 2 {
  %3 = alloca ptr, align 8
  %4 = alloca ptr, align 8
  store ptr %0, ptr %3, align 8, !tbaa !164
  store ptr %1, ptr %4, align 8, !tbaa !29
  %5 = load ptr, ptr %3, align 8
  %6 = getelementptr inbounds nuw %"struct.std::_Optional_payload_base", ptr %5, i32 0, i32 0
  %7 = load ptr, ptr %4, align 8, !tbaa !29
  call void @_ZNSt22_Optional_payload_baseISt17basic_string_viewIcSt11char_traitsIcEEE8_StorageIS3_Lb1EEC2IJRS3_EEESt10in_place_tDpOT_(ptr noundef nonnull align 8 dereferenceable(16) %6, ptr noundef nonnull align 8 dereferenceable(16) %7)
  %8 = getelementptr inbounds nuw %"struct.std::_Optional_payload_base", ptr %5, i32 0, i32 1
  store i8 1, ptr %8, align 8, !tbaa !166
  ret void
}

; Function Attrs: mustprogress nounwind uwtable
define linkonce_odr void @_ZNSt22_Optional_payload_baseISt17basic_string_viewIcSt11char_traitsIcEEEC2Ev(ptr noundef nonnull align 8 dereferenceable(17) %0) unnamed_addr #0 comdat align 2 {
  %2 = alloca ptr, align 8
  store ptr %0, ptr %2, align 8, !tbaa !164
  %3 = load ptr, ptr %2, align 8
  %4 = getelementptr inbounds nuw %"struct.std::_Optional_payload_base", ptr %3, i32 0, i32 0
  call void @_ZNSt22_Optional_payload_baseISt17basic_string_viewIcSt11char_traitsIcEEE8_StorageIS3_Lb1EEC2Ev(ptr noundef nonnull align 8 dereferenceable(16) %4) #13
  %5 = getelementptr inbounds nuw %"struct.std::_Optional_payload_base", ptr %3, i32 0, i32 1
  store i8 0, ptr %5, align 8, !tbaa !166
  ret void
}

; Function Attrs: inlinehint mustprogress uwtable
define linkonce_odr void @_ZNSt17_Optional_payloadISt17basic_string_viewIcSt11char_traitsIcEELb1ELb1ELb1EECI2St22_Optional_payload_baseIS3_EIJRS3_EEESt10in_place_tDpOT_(ptr noundef nonnull align 8 dereferenceable(17) %0, ptr noundef nonnull align 8 dereferenceable(16) %1) unnamed_addr #3 comdat align 2 {
  %3 = alloca ptr, align 8
  %4 = alloca ptr, align 8
  store ptr %0, ptr %3, align 8, !tbaa !162
  store ptr %1, ptr %4, align 8, !tbaa !29
  %5 = load ptr, ptr %3, align 8
  %6 = load ptr, ptr %4, align 8
  call void @_ZNSt22_Optional_payload_baseISt17basic_string_viewIcSt11char_traitsIcEEEC2IJRS3_EEESt10in_place_tDpOT_(ptr noundef nonnull align 8 dereferenceable(17) %5, ptr noundef nonnull align 8 dereferenceable(16) %6)
  ret void
}

; Function Attrs: mustprogress nounwind uwtable
define linkonce_odr void @_ZNSt17_Optional_payloadISt17basic_string_viewIcSt11char_traitsIcEELb1ELb1ELb1EEC2Ev(ptr noundef nonnull align 8 dereferenceable(17) %0) unnamed_addr #0 comdat align 2 {
  %2 = alloca ptr, align 8
  store ptr %0, ptr %2, align 8, !tbaa !162
  %3 = load ptr, ptr %2, align 8
  call void @_ZNSt22_Optional_payload_baseISt17basic_string_viewIcSt11char_traitsIcEEEC2Ev(ptr noundef nonnull align 8 dereferenceable(17) %3) #13
  ret void
}

; Function Attrs: noinline noreturn nounwind uwtable
define linkonce_odr hidden void @__clang_call_terminate(ptr noundef %0) #4 comdat {
  %2 = call ptr @__cxa_begin_catch(ptr %0) #13
  call void @_ZSt9terminatev() #15
  unreachable
}

; Function Attrs: mustprogress uwtable
define linkonce_odr void @_ZNSt14_Optional_baseISt17basic_string_viewIcSt11char_traitsIcEELb1ELb1EEC2IJRS3_ETnNSt9enable_ifIX18is_constructible_vIS3_DpT_EEbE4typeELb0EEESt10in_place_tDpOS8_(ptr noundef nonnull align 8 dereferenceable(24) %0, ptr noundef nonnull align 8 dereferenceable(16) %1) unnamed_addr #1 comdat align 2 {
  %3 = alloca ptr, align 8
  %4 = alloca ptr, align 8
  store ptr %0, ptr %3, align 8, !tbaa !160
  store ptr %1, ptr %4, align 8, !tbaa !29
  %5 = load ptr, ptr %3, align 8
  %6 = getelementptr inbounds nuw %"struct.std::_Optional_base", ptr %5, i32 0, i32 0
  %7 = load ptr, ptr %4, align 8, !tbaa !29
  call void @_ZNSt17_Optional_payloadISt17basic_string_viewIcSt11char_traitsIcEELb1ELb1ELb1EECI2St22_Optional_payload_baseIS3_EIJRS3_EEESt10in_place_tDpOT_(ptr noundef nonnull align 8 dereferenceable(17) %6, ptr noundef nonnull align 8 dereferenceable(16) %7)
  ret void
}

; Function Attrs: mustprogress nounwind uwtable
define linkonce_odr void @_ZNSt14_Optional_baseISt17basic_string_viewIcSt11char_traitsIcEELb1ELb1EEC2Ev(ptr noundef nonnull align 8 dereferenceable(24) %0) unnamed_addr #0 comdat align 2 {
  %2 = alloca ptr, align 8
  store ptr %0, ptr %2, align 8, !tbaa !160
  %3 = load ptr, ptr %2, align 8
  %4 = getelementptr inbounds nuw %"struct.std::_Optional_base", ptr %3, i32 0, i32 0
  call void @_ZNSt17_Optional_payloadISt17basic_string_viewIcSt11char_traitsIcEELb1ELb1ELb1EEC2Ev(ptr noundef nonnull align 8 dereferenceable(17) %4) #13
  ret void
}

; Function Attrs: mustprogress nounwind uwtable
define linkonce_odr void @_ZNSt8optionalISt17basic_string_viewIcSt11char_traitsIcEEEC2IRS3_TnNSt9enable_ifIX7__and_vISt6__not_ISt7is_sameIS4_NSt9remove_cvINSt16remove_referenceIT_E4typeEE4typeEEES8_IS9_ISt10in_place_tSG_EESt16is_constructibleIS3_JSC_EESt14is_convertibleISC_S3_EEEbE4typeELb1EEEOSC_(ptr noundef nonnull align 8 dereferenceable(24) %0, ptr noundef nonnull align 8 dereferenceable(16) %1) unnamed_addr #0 comdat align 2 personality ptr @__gxx_personality_v0 {
  %3 = alloca ptr, align 8
  %4 = alloca ptr, align 8
  store ptr %0, ptr %3, align 8, !tbaa !27
  store ptr %1, ptr %4, align 8, !tbaa !29
  %5 = load ptr, ptr %3, align 8
  %6 = load ptr, ptr %4, align 8, !tbaa !29
  invoke void @_ZNSt14_Optional_baseISt17basic_string_viewIcSt11char_traitsIcEELb1ELb1EEC2IJRS3_ETnNSt9enable_ifIX18is_constructible_vIS3_DpT_EEbE4typeELb0EEESt10in_place_tDpOS8_(ptr noundef nonnull align 8 dereferenceable(24) %5, ptr noundef nonnull align 8 dereferenceable(16) %6)
          to label %7 unwind label %8

7:                                                ; preds = %2
  ret void

8:                                                ; preds = %2
  %9 = landingpad { ptr, i32 }
          catch ptr null
  %10 = extractvalue { ptr, i32 } %9, 0
  call void @__clang_call_terminate(ptr %10) #15
  unreachable
}

; Function Attrs: mustprogress nounwind uwtable
define linkonce_odr void @_ZNSt8optionalISt17basic_string_viewIcSt11char_traitsIcEEEC2ESt9nullopt_t(ptr noundef nonnull align 8 dereferenceable(24) %0) unnamed_addr #0 comdat align 2 {
  %2 = alloca ptr, align 8
  store ptr %0, ptr %2, align 8, !tbaa !27
  %3 = load ptr, ptr %2, align 8
  call void @_ZNSt14_Optional_baseISt17basic_string_viewIcSt11char_traitsIcEELb1ELb1EEC2Ev(ptr noundef nonnull align 8 dereferenceable(24) %3) #13
  ret void
}

; Function Attrs: mustprogress uwtable
define void @_Z19ulocimp_toBcpKey_77St17basic_string_viewIcSt11char_traitsIcEE(ptr dead_on_unwind noalias writable sret(%"class.std::optional") align 8 %0, i64 %1, ptr %2) #1 {
  %4 = alloca %"class.std::basic_string_view", align 8
  %5 = alloca ptr, align 8
  %6 = alloca i32, align 4
  %7 = getelementptr inbounds nuw { i64, ptr }, ptr %4, i32 0, i32 0
  store i64 %1, ptr %7, align 8
  %8 = getelementptr inbounds nuw { i64, ptr }, ptr %4, i32 0, i32 1
  store ptr %2, ptr %8, align 8
  %9 = call noundef zeroext i1 @_ZN12_GLOBAL__N_14initEv()
  br i1 %9, label %11, label %10

10:                                               ; preds = %3
  call void @_ZNSt8optionalISt17basic_string_viewIcSt11char_traitsIcEEEC2ESt9nullopt_t(ptr noundef nonnull align 8 dereferenceable(24) %0) #13
  br label %21

11:                                               ; preds = %3
  call void @llvm.lifetime.start.p0(i64 8, ptr %5) #13
  %12 = load ptr, ptr @_ZL13gLocExtKeyMap, align 8, !tbaa !23
  %13 = call ptr @uhash_get_77(ptr noundef %12, ptr noundef %4)
  store ptr %13, ptr %5, align 8, !tbaa !25
  %14 = load ptr, ptr %5, align 8, !tbaa !25
  %15 = icmp ne ptr %14, null
  br i1 %15, label %16, label %19

16:                                               ; preds = %11
  %17 = load ptr, ptr %5, align 8, !tbaa !25
  %18 = getelementptr inbounds nuw %struct.LocExtKeyData, ptr %17, i32 0, i32 1
  call void @_ZNSt8optionalISt17basic_string_viewIcSt11char_traitsIcEEEC2IRS3_TnNSt9enable_ifIX7__and_vISt6__not_ISt7is_sameIS4_NSt9remove_cvINSt16remove_referenceIT_E4typeEE4typeEEES8_IS9_ISt10in_place_tSG_EESt16is_constructibleIS3_JSC_EESt14is_convertibleISC_S3_EEEbE4typeELb1EEEOSC_(ptr noundef nonnull align 8 dereferenceable(24) %0, ptr noundef nonnull align 8 dereferenceable(16) %18) #13
  store i32 1, ptr %6, align 4
  br label %20

19:                                               ; preds = %11
  call void @_ZNSt8optionalISt17basic_string_viewIcSt11char_traitsIcEEEC2ESt9nullopt_t(ptr noundef nonnull align 8 dereferenceable(24) %0) #13
  store i32 1, ptr %6, align 4
  br label %20

20:                                               ; preds = %19, %16
  call void @llvm.lifetime.end.p0(i64 8, ptr %5) #13
  br label %21

21:                                               ; preds = %20, %10
  ret void
}